target datalayout = "e-m:e-p270:32:32-p271:32:32-p272:64:64-i64:64-i128:128-f80:128-n8:16:32:64-S128"
target triple = "x86_64-pc-linux-gnu"

@_ZN5IpoptL25user_ma77_default_controlE = internal global ptr null, align 8
@_ZN5IpoptL19user_ma77_open_neltE = internal global ptr null, align 8
@_ZN5IpoptL14user_ma77_openE = internal global ptr null, align 8
@_ZN5IpoptL20user_ma77_input_varsE = internal global ptr null, align 8
@_ZN5IpoptL21user_ma77_input_realsE = internal global ptr null, align 8
@_ZN5IpoptL17user_ma77_analyseE = internal global ptr null, align 8
@_ZN5IpoptL16user_ma77_factorE = internal global ptr null, align 8
@_ZN5IpoptL22user_ma77_factor_solveE = internal global ptr null, align 8
@_ZN5IpoptL15user_ma77_solveE = internal global ptr null, align 8
@_ZN5IpoptL15user_ma77_residE = internal global ptr null, align 8
@_ZN5IpoptL15user_ma77_scaleE = internal global ptr null, align 8
@_ZN5IpoptL24user_ma77_enquire_posdefE = internal global ptr null, align 8
@_ZN5IpoptL23user_ma77_enquire_indefE = internal global ptr null, align 8
@_ZN5IpoptL15user_ma77_alterE = internal global ptr null, align 8
@_ZN5IpoptL17user_ma77_restartE = internal global ptr null, align 8
@_ZN5IpoptL18user_ma77_finaliseE = internal global ptr null, align 8
@_ZN5IpoptL25user_mc68_default_controlE = internal global ptr null, align 8
@_ZN5IpoptL15user_mc68_orderE = internal global ptr null, align 8

; Function Attrs: mustprogress nounwind uwtable
define void @_ZN5Ipopt19Ma77SolverInterface12SetFunctionsEPFvP14ma77_control_dEPFviPKcS6_S6_S6_PPvPKS1_P11ma77_info_diEPFviS6_S6_S6_S6_S8_SA_SC_EPFviiPKiS8_SA_SC_EPFviiPKdS8_SA_SC_EPFvSI_S8_SA_SC_EPFviS8_SA_SC_SM_EPFviS8_SA_SC_SM_iiPdEPFviiiST_S8_SA_SC_SM_EPFviiSM_iST_S8_SA_SC_ST_EPFvST_S8_SA_SC_ST_EPFvST_S8_SA_SC_EPFvPiST_S8_SA_SC_EPFvSM_S8_SA_SC_EPFvS6_S6_S6_S6_S6_S8_SA_SC_EPFvS8_SA_SC_EPFvP14mc68_control_iEPFviiSI_SI_S14_PKS1D_P11mc68_info_iE(ptr noundef %0, ptr noundef %1, ptr noundef %2, ptr noundef %3, ptr noundef %4, ptr noundef %5, ptr noundef %6, ptr noundef %7, ptr noundef %8, ptr noundef %9, ptr noundef %10, ptr noundef %11, ptr noundef %12, ptr noundef %13, ptr noundef %14, ptr noundef %15, ptr noundef %16, ptr noundef %17) #4 align 2 {
  %19 = alloca ptr, align 8
  %20 = alloca ptr, align 8
  %21 = alloca ptr, align 8
  %22 = alloca ptr, align 8
  %23 = alloca ptr, align 8
  %24 = alloca ptr, align 8
  %25 = alloca ptr, align 8
  %26 = alloca ptr, align 8
  %27 = alloca ptr, align 8
  %28 = alloca ptr, align 8
  %29 = alloca ptr, align 8
  %30 = alloca ptr, align 8
  %31 = alloca ptr, align 8
  %32 = alloca ptr, align 8
  %33 = alloca ptr, align 8
  %34 = alloca ptr, align 8
  %35 = alloca ptr, align 8
  %36 = alloca ptr, align 8
  store ptr %0, ptr %19, align 8
  store ptr %1, ptr %20, align 8
  store ptr %2, ptr %21, align 8
  store ptr %3, ptr %22, align 8
  store ptr %4, ptr %23, align 8
  store ptr %5, ptr %24, align 8
  store ptr %6, ptr %25, align 8
  store ptr %7, ptr %26, align 8
  store ptr %8, ptr %27, align 8
  store ptr %9, ptr %28, align 8
  store ptr %10, ptr %29, align 8
  store ptr %11, ptr %30, align 8
  store ptr %12, ptr %31, align 8
  store ptr %13, ptr %32, align 8
  store ptr %14, ptr %33, align 8
  store ptr %15, ptr %34, align 8
  store ptr %16, ptr %35, align 8
  store ptr %17, ptr %36, align 8
  %37 = load ptr, ptr %19, align 8
  store ptr %37, ptr @_ZN5IpoptL25user_ma77_default_controlE, align 8
  %38 = load ptr, ptr %20, align 8
  store ptr %38, ptr @_ZN5IpoptL19user_ma77_open_neltE, align 8
  %39 = load ptr, ptr %21, align 8
  store ptr %39, ptr @_ZN5IpoptL14user_ma77_openE, align 8
  %40 = load ptr, ptr %22, align 8
  store ptr %40, ptr @_ZN5IpoptL20user_ma77_input_varsE, align 8
  %41 = load ptr, ptr %23, align 8
  store ptr %41, ptr @_ZN5IpoptL21user_ma77_input_realsE, align 8
  %42 = load ptr, ptr %24, align 8
  store ptr %42, ptr @_ZN5IpoptL17user_ma77_analyseE, align 8
  %43 = load ptr, ptr %25, align 8
  store ptr %43, ptr @_ZN5IpoptL16user_ma77_factorE, align 8
  %44 = load ptr, ptr %26, align 8
  store ptr %44, ptr @_ZN5IpoptL22user_ma77_factor_solveE, align 8
  %45 = load ptr, ptr %27, align 8
  store ptr %45, ptr @_ZN5IpoptL15user_ma77_solveE, align 8
  %46 = load ptr, ptr %28, align 8
  store ptr %46, ptr @_ZN5IpoptL15user_ma77_residE, align 8
  %47 = load ptr, ptr %29, align 8
  store ptr %47, ptr @_ZN5IpoptL15user_ma77_scaleE, align 8
  %48 = load ptr, ptr %30, align 8
  store ptr %48, ptr @_ZN5IpoptL24user_ma77_enquire_posdefE, align 8
  %49 = load ptr, ptr %31, align 8
  store ptr %49, ptr @_ZN5IpoptL23user_ma77_enquire_indefE, align 8
  %50 = load ptr, ptr %32, align 8
  store ptr %50, ptr @_ZN5IpoptL15user_ma77_alterE, align 8
  %51 = load ptr, ptr %33, align 8
  store ptr %51, ptr @_ZN5IpoptL17user_ma77_restartE, align 8
  %52 = load ptr, ptr %34, align 8
  store ptr %52, ptr @_ZN5IpoptL18user_ma77_finaliseE, align 8
  %53 = load ptr, ptr %35, align 8
  store ptr %53, ptr @_ZN5IpoptL25user_mc68_default_controlE, align 8
  %54 = load ptr, ptr %36, align 8
  store ptr %54, ptr @_ZN5IpoptL15user_mc68_orderE, align 8
  ret void
}