; Function Attrs: mustprogress nofree norecurse nosync nounwind willreturn memory(write, argmem: none, inaccessiblemem: none) uwtable
define void @_ZN5Ipopt19Ma77SolverInterface12SetFunctionsEPFvP14ma77_control_dEPFviPKcS6_S6_S6_PPvPKS1_P11ma77_info_diEPFviS6_S6_S6_S6_S8_SA_SC_EPFviiPKiS8_SA_SC_EPFviiPKdS8_SA_SC_EPFvSI_S8_SA_SC_EPFviS8_SA_SC_SM_EPFviS8_SA_SC_SM_iiPdEPFviiiST_S8_SA_SC_SM_EPFviiSM_iST_S8_SA_SC_ST_EPFvST_S8_SA_SC_ST_EPFvST_S8_SA_SC_EPFvPiST_S8_SA_SC_EPFvSM_S8_SA_SC_EPFvS6_S6_S6_S6_S6_S8_SA_SC_EPFvS8_SA_SC_EPFvP14mc68_control_iEPFviiSI_SI_S14_PKS1D_P11mc68_info_iE(ptr noundef %0, ptr noundef %1, ptr noundef %2, ptr noundef %3, ptr noundef %4, ptr noundef %5, ptr noundef %6, ptr noundef %7, ptr noundef %8, ptr noundef %9, ptr noundef %10, ptr noundef %11, ptr noundef %12, ptr noundef %13, ptr noundef %14, ptr noundef %15, ptr noundef %16, ptr noundef %17) local_unnamed_addr #7 align 2 {
  store ptr %0, ptr @_ZN5IpoptL25user_ma77_default_controlE, align 8
  store ptr %1, ptr @_ZN5IpoptL19user_ma77_open_neltE, align 8
  store ptr %2, ptr @_ZN5IpoptL14user_ma77_openE, align 8
  store ptr %3, ptr @_ZN5IpoptL20user_ma77_input_varsE, align 8
  store ptr %4, ptr @_ZN5IpoptL21user_ma77_input_realsE, align 8
  store ptr %5, ptr @_ZN5IpoptL17user_ma77_analyseE, align 8
  store ptr %6, ptr @_ZN5IpoptL16user_ma77_factorE, align 8
  store ptr %7, ptr @_ZN5IpoptL22user_ma77_factor_solveE, align 8
  store ptr %8, ptr @_ZN5IpoptL15user_ma77_solveE, align 8
  store ptr %9, ptr @_ZN5IpoptL15user_ma77_residE, align 8
  store ptr %10, ptr @_ZN5IpoptL15user_ma77_scaleE, align 8
  store ptr %11, ptr @_ZN5IpoptL24user_ma77_enquire_posdefE, align 8
  store ptr %12, ptr @_ZN5IpoptL23user_ma77_enquire_indefE, align 8
  store ptr %13, ptr @_ZN5IpoptL15user_ma77_alterE, align 8
  store ptr %14, ptr @_ZN5IpoptL17user_ma77_restartE, align 8
  store ptr %15, ptr @_ZN5IpoptL18user_ma77_finaliseE, align 8
  store ptr %16, ptr @_ZN5IpoptL25user_mc68_default_controlE, align 8
  store ptr %17, ptr @_ZN5IpoptL15user_mc68_orderE, align 8
  ret void
}